; Function Attrs: mustprogress uwtable
define noundef i32 @_ZN20FilterFunctionPlugin15getRequirementsEPK7QAction(ptr noundef nonnull align 8 dereferenceable(1048) %0, ptr noundef %1) unnamed_addr #9 align 2 {
  %3 = getelementptr inbounds i8, ptr %0, i64 16
  %4 = load ptr, ptr %3, align 8
  %5 = getelementptr inbounds i8, ptr %4, i64 144
  %6 = load ptr, ptr %5, align 8
  %7 = tail call noundef i32 %6(ptr noundef nonnull align 8 dereferenceable(64) %3, ptr noundef %1)
  switch i32 %7, label %12 [
    i32 17, label %11
    i32 5, label %10
    i32 10, label %9
    i32 4, label %8
  ]

8:                                                ; preds = %2
  br label %12

9:                                                ; preds = %2
  br label %12

10:                                               ; preds = %2
  br label %12

11:                                               ; preds = %2
  br label %12

12:                                               ; preds = %2, %11, %10, %9, %8
  %.0 = phi i32 [ 262176, %11 ], [ 32768, %10 ], [ 98304, %9 ], [ 2097152, %8 ], [ 0, %2 ]
  ret i32 %.0
}